target datalayout = "e-m:e-p270:32:32-p271:32:32-p272:64:64-i64:64-i128:128-f80:128-n8:16:32:64-S128"
target triple = "x86_64-pc-linux-gnu"

%struct.MPVEncContext = type { %struct.MpegEncContext, %struct.PutBitContext, i32, i32, ptr, i32, i32, i32, i32, i32, i32, i32, i32, ptr, ptr, %struct.FDCTDSPContext, %struct.MpegvideoEncDSPContext, %struct.PixblockDSPContext, %struct.MotionEstContext, i32, i32, ptr, ptr, ptr, ptr, ptr, ptr, [2 x [2 x [2 x ptr]]], [2 x ptr], [2 x [2 x ptr]], ptr, ptr, ptr, ptr, [3 x i64], i32, i32, i32, i32, i32, ptr, ptr, ptr, ptr, ptr, ptr, ptr, [12 x i32], ptr, ptr, ptr, ptr, ptr, ptr, ptr, ptr, [2 x i32], ptr, i32, i32, i32, i32, i32, i32, i32, i32, i32, i32, ptr, ptr, i32, i32, %struct.PutBitContext, %struct.PutBitContext, i32, i32, i32, i32, ptr, ptr, ptr, [2 x ptr], [2 x ptr], [2 x ptr], [2 x ptr], ptr, i32 }
%struct.MpegEncContext = type { ptr, i32, i32, i32, [12 x i32], i32, %struct.ScanTable, %struct.ScanTable, [64 x i8], [64 x i8], ptr, ptr, i32, i32, i32, i32, i32, i32, i32, i32, i32, i32, i32, i32, i32, i32, i32, i32, i32, i32, i32, i32, i64, i64, ptr, %struct.BufferPoolContext, i32, i32, %union.anon.0, i32, %struct.MPVWorkPicture, %struct.MPVWorkPicture, %struct.MPVWorkPicture, i32, [3 x i32], ptr, [3 x ptr], ptr, ptr, ptr, ptr, ptr, ptr, [3 x ptr], i32, ptr, ptr, ptr, ptr, %struct.ScratchpadContext, i32, i32, i32, i32, i32, i32, %struct.BlockDSPContext, %struct.H264ChromaContext, %struct.HpelDSPContext, %struct.IDCTDSPContext, %struct.QpelDSPContext, %struct.VideoDSPContext, %struct.H263DSPContext, ptr, [2 x [2 x ptr]], i32, i32, [2 x [4 x [2 x i32]]], [2 x [2 x i32]], [2 x [2 x [2 x i32]]], [2 x [64 x i16]], i32, i32, i32, i32, i32, [6 x i32], [6 x i32], [3 x ptr], ptr, [64 x i16], [64 x i16], [64 x i16], [64 x i16], i32, i32, %struct.GetBitContext, i32, i32, i32, i32, i32, i32, i32, i32, i32, i32, i32, i32, i32, i32, i32, i64, i64, i16, i16, i16, i16, i32, i32, i32, i32, i32, i32, i32, i32, i32, [3 x i32], i32, i32, i32, i32, i32, i32, %struct.GetBitContext, i32, [2 x [2 x i32]], i32, i32, i32, i32, i32, i32, i32, i32, i32, i32, i32, i32, i32, i32, [2 x i32], i32, i32, ptr, ptr, ptr, ptr, ptr, i32, i32, %struct.ERContext }
%struct.ScanTable = type { ptr, [64 x i8], [64 x i8] }
%struct.BufferPoolContext = type { ptr, ptr, ptr, ptr, ptr, i32, i32, i32 }
%union.anon.0 = type { [32 x ptr] }
%struct.MPVWorkPicture = type { [3 x ptr], [3 x i64], ptr, ptr, [2 x ptr], ptr, ptr, [2 x ptr], i32 }
%struct.ScratchpadContext = type { ptr, ptr, %union.anon.1, i32 }
%union.anon.1 = type { ptr }
%struct.BlockDSPContext = type { ptr, ptr, [2 x ptr] }
%struct.H264ChromaContext = type { [4 x ptr], [4 x ptr] }
%struct.HpelDSPContext = type { [4 x [4 x ptr]], [4 x [4 x ptr]], [4 x [4 x ptr]], [4 x ptr] }
%struct.IDCTDSPContext = type { ptr, ptr, ptr, ptr, ptr, ptr, [64 x i8], i32, i32 }
%struct.QpelDSPContext = type { [2 x [16 x ptr]], [2 x [16 x ptr]], [2 x [16 x ptr]] }
%struct.VideoDSPContext = type { ptr, ptr }
%struct.H263DSPContext = type { ptr, ptr }
%struct.GetBitContext = type { ptr, ptr, i32, i32, i32 }
%struct.ERContext = type { ptr, ptr, i32, ptr, i32, i32, i32, i64, i64, i32, i32, ptr, ptr, [3 x ptr], ptr, ptr, [2 x [4 x [2 x i32]]], %struct.ERPicture, %struct.ERPicture, %struct.ERPicture, [2 x ptr], [2 x ptr], i16, i16, i32, i32, ptr, ptr }
%struct.ERPicture = type { ptr, ptr, ptr, [2 x ptr], [2 x ptr], ptr, i32 }
%struct.FDCTDSPContext = type { ptr, ptr }
%struct.MpegvideoEncDSPContext = type { ptr, ptr, ptr, ptr, [4 x ptr], ptr }
%struct.PixblockDSPContext = type { ptr, ptr, ptr, ptr }
%struct.MotionEstContext = type { ptr, i32, i32, [4 x [2 x i32]], [4 x [2 x i32]], ptr, ptr, i32, i32, i32, i32, i32, i32, i32, i32, i32, i32, i32, i32, i32, i32, i32, i32, [4 x [4 x ptr]], [4 x [4 x ptr]], i32, i32, i64, i64, i32, [6 x ptr], [6 x ptr], [6 x ptr], [6 x ptr], [2 x [4 x ptr]], ptr, ptr, ptr, ptr, ptr, ptr, ptr, ptr, [64 x i32], [64 x i32] }
%struct.PutBitContext = type { i32, i32, ptr, ptr, ptr }
%struct.AVCodecContext = type { ptr, i32, i32, ptr, i32, i32, ptr, ptr, ptr, i64, i32, i32, ptr, i32, %struct.AVRational, %struct.AVRational, %struct.AVRational, i32, i32, i32, i32, i32, %struct.AVRational, i32, i32, i32, i32, i32, i32, i32, i32, i32, i32, i32, ptr, ptr, i32, float, float, float, float, float, float, float, float, float, i32, i32, i32, i32, i32, i32, i32, i32, i32, i32, i32, i32, ptr, ptr, ptr, i32, i32, i32, i32, i32, i32, i32, i32, i32, i32, %struct.AVChannelLayout, i32, i32, i32, i32, i32, i32, i32, i32, ptr, i32, i32, i32, float, float, i32, i32, i32, i32, i32, ptr, i64, i64, float, float, i32, i32, ptr, ptr, i32, i32, i32, i32, i32, ptr, ptr, ptr, ptr, i32, i32, [8 x i64], i32, i32, i32, i32, i32, i32, i32, ptr, ptr, i32, i32, i32, i32, i32, i32, i32, i32, i32, i32, ptr, ptr, i32, i32, ptr, ptr, ptr, ptr, i32, i32, i64, i32, i32, i64, ptr, i64, ptr, i32, ptr, i32 }
%struct.AVRational = type { i32, i32 }
%struct.AVChannelLayout = type { i32, i32, %union.anon.2, ptr }
%union.anon.2 = type { i64 }
%struct.MPVMainEncContext = type { %struct.MPVEncContext, i32, i32, i32, i32, i32, i32, [17 x ptr], [17 x ptr], i64, i64, i64, [18 x ptr], i32, i32, i32, i32, i32, float, i32, i32, i32, i32, ptr, i32, i32, i32, i32, ptr, ptr, i64, i64, i32, i32, i32, i32, i32, [5 x i32], i32, i32, %struct.RateControlContext, i32, i32, i64, i64, ptr, ptr, ptr }
%struct.RateControlContext = type { i32, ptr, double, [5 x %struct.Predictor], double, double, double, double, double, [5 x double], i64, i64, [5 x i64], [5 x i64], [5 x i64], [5 x i64], [5 x i32], i32, float, float, i32, float, float, ptr, ptr, ptr, ptr }
%struct.Predictor = type { double, double, double }

; Function Attrs: inlinehint nounwind uwtable
define internal void @av_refstruct_pool_uninit(ptr noundef %0) #3 {
  %2 = alloca ptr, align 8
  store ptr %0, ptr %2, align 8, !tbaa !294
  %3 = load ptr, ptr %2, align 8, !tbaa !294
  call void @av_refstruct_unref(ptr noundef %3)
  ret void
}

; Function Attrs: cold nounwind optsize uwtable
define i32 @ff_mpv_encode_end(ptr noundef %0) #4 {
  %2 = alloca ptr, align 8
  %3 = alloca ptr, align 8
  %4 = alloca ptr, align 8
  %5 = alloca i32, align 4
  %6 = alloca i32, align 4
  store ptr %0, ptr %2, align 8, !tbaa !125
  call void @llvm.lifetime.start.p0(i64 8, ptr %3) #14
  %7 = load ptr, ptr %2, align 8, !tbaa !125
  %8 = getelementptr inbounds nuw %struct.AVCodecContext, ptr %7, i32 0, i32 6
  %9 = load ptr, ptr %8, align 8, !tbaa !126
  store ptr %9, ptr %3, align 8, !tbaa !127
  call void @llvm.lifetime.start.p0(i64 8, ptr %4) #14
  %10 = load ptr, ptr %3, align 8, !tbaa !127
  %11 = getelementptr inbounds nuw %struct.MPVMainEncContext, ptr %10, i32 0, i32 0
  store ptr %11, ptr %4, align 8, !tbaa !4
  %12 = load ptr, ptr %3, align 8, !tbaa !127
  %13 = getelementptr inbounds nuw %struct.MPVMainEncContext, ptr %12, i32 0, i32 40
  call void @ff_rate_control_uninit(ptr noundef %13)
  %14 = load ptr, ptr %4, align 8, !tbaa !4
  %15 = getelementptr inbounds nuw %struct.MPVEncContext, ptr %14, i32 0, i32 0
  call void @ff_mpv_common_end(ptr noundef %15)
  %16 = load ptr, ptr %4, align 8, !tbaa !4
  %17 = getelementptr inbounds nuw %struct.MPVEncContext, ptr %16, i32 0, i32 0
  %18 = getelementptr inbounds nuw %struct.MpegEncContext, ptr %17, i32 0, i32 34
  call void @av_refstruct_pool_uninit(ptr noundef %18)
  call void @llvm.lifetime.start.p0(i64 4, ptr %5) #14
  store i32 0, ptr %5, align 4, !tbaa !13
  br label %19

19:                                               ; preds = %34, %1
  %20 = load i32, ptr %5, align 4, !tbaa !13
  %21 = icmp slt i32 %20, 17
  br i1 %21, label %23, label %22

22:                                               ; preds = %19
  call void @llvm.lifetime.end.p0(i64 4, ptr %5) #14
  br label %37

23:                                               ; preds = %19
  %24 = load ptr, ptr %3, align 8, !tbaa !127
  %25 = getelementptr inbounds nuw %struct.MPVMainEncContext, ptr %24, i32 0, i32 7
  %26 = load i32, ptr %5, align 4, !tbaa !13
  %27 = sext i32 %26 to i64
  %28 = getelementptr inbounds [17 x ptr], ptr %25, i64 0, i64 %27
  call void @av_refstruct_unref(ptr noundef %28)
  %29 = load ptr, ptr %3, align 8, !tbaa !127
  %30 = getelementptr inbounds nuw %struct.MPVMainEncContext, ptr %29, i32 0, i32 8
  %31 = load i32, ptr %5, align 4, !tbaa !13
  %32 = sext i32 %31 to i64
  %33 = getelementptr inbounds [17 x ptr], ptr %30, i64 0, i64 %32
  call void @av_refstruct_unref(ptr noundef %33)
  br label %34

34:                                               ; preds = %23
  %35 = load i32, ptr %5, align 4, !tbaa !13
  %36 = add nsw i32 %35, 1
  store i32 %36, ptr %5, align 4, !tbaa !13
  br label %19, !llvm.loop !292

37:                                               ; preds = %22
  call void @llvm.lifetime.start.p0(i64 4, ptr %6) #14
  store i32 0, ptr %6, align 4, !tbaa !13
  br label %38

38:                                               ; preds = %49, %37
  %39 = load i32, ptr %6, align 4, !tbaa !13
  %40 = sext i32 %39 to i64
  %41 = icmp ult i64 %40, 18
  br i1 %41, label %43, label %42

42:                                               ; preds = %38
  call void @llvm.lifetime.end.p0(i64 4, ptr %6) #14
  br label %52

43:                                               ; preds = %38
  %44 = load ptr, ptr %3, align 8, !tbaa !127
  %45 = getelementptr inbounds nuw %struct.MPVMainEncContext, ptr %44, i32 0, i32 12
  %46 = load i32, ptr %6, align 4, !tbaa !13
  %47 = sext i32 %46 to i64
  %48 = getelementptr inbounds [18 x ptr], ptr %45, i64 0, i64 %47
  call void @av_frame_free(ptr noundef %48)
  br label %49

49:                                               ; preds = %43
  %50 = load i32, ptr %6, align 4, !tbaa !13
  %51 = add nsw i32 %50, 1
  store i32 %51, ptr %6, align 4, !tbaa !13
  br label %38, !llvm.loop !293

52:                                               ; preds = %42
  %53 = load ptr, ptr %4, align 8, !tbaa !4
  %54 = getelementptr inbounds nuw %struct.MPVEncContext, ptr %53, i32 0, i32 13
  call void @av_frame_free(ptr noundef %54)
  %55 = load ptr, ptr %2, align 8, !tbaa !125
  %56 = getelementptr inbounds nuw %struct.AVCodecContext, ptr %55, i32 0, i32 98
  call void @av_freep(ptr noundef %56)
  %57 = load ptr, ptr %3, align 8, !tbaa !127
  %58 = getelementptr inbounds nuw %struct.MPVMainEncContext, ptr %57, i32 0, i32 47
  call void @av_freep(ptr noundef %58)
  %59 = load ptr, ptr %4, align 8, !tbaa !4
  %60 = getelementptr inbounds nuw %struct.MPVEncContext, ptr %59, i32 0, i32 28
  %61 = getelementptr inbounds [2 x ptr], ptr %60, i64 0, i64 0
  call void @av_freep(ptr noundef %61)
  %62 = load ptr, ptr %3, align 8, !tbaa !127
  %63 = getelementptr inbounds nuw %struct.MPVMainEncContext, ptr %62, i32 0, i32 46
  call void @av_freep(ptr noundef %63)
  %64 = load ptr, ptr %4, align 8, !tbaa !4
  %65 = getelementptr inbounds nuw %struct.MPVEncContext, ptr %64, i32 0, i32 30
  call void @av_freep(ptr noundef %65)
  %66 = load ptr, ptr %4, align 8, !tbaa !4
  %67 = getelementptr inbounds nuw %struct.MPVEncContext, ptr %66, i32 0, i32 4
  call void @av_freep(ptr noundef %67)
  %68 = load ptr, ptr %4, align 8, !tbaa !4
  %69 = getelementptr inbounds nuw %struct.MPVEncContext, ptr %68, i32 0, i32 48
  call void @av_freep(ptr noundef %69)
  %70 = load ptr, ptr %4, align 8, !tbaa !4
  %71 = getelementptr inbounds nuw %struct.MPVEncContext, ptr %70, i32 0, i32 51
  call void @av_freep(ptr noundef %71)
  %72 = load ptr, ptr %4, align 8, !tbaa !4
  %73 = getelementptr inbounds nuw %struct.MPVEncContext, ptr %72, i32 0, i32 57
  call void @av_freep(ptr noundef %73)
  call void @llvm.lifetime.end.p0(i64 8, ptr %4) #14
  call void @llvm.lifetime.end.p0(i64 8, ptr %3) #14
  ret i32 0
}