; Function Attrs: cold nounwind optsize uwtable
define noundef i32 @ff_mpv_encode_end(ptr noundef %0) local_unnamed_addr #6 {
  %2 = getelementptr inbounds nuw i8, ptr %0, i64 32
  %3 = load ptr, ptr %2, align 8, !tbaa !112
  %4 = getelementptr inbounds nuw i8, ptr %3, i64 7592
  tail call void @ff_rate_control_uninit(ptr noundef nonnull %4) #16
  tail call void @ff_mpv_common_end(ptr noundef %3) #16
  %5 = getelementptr inbounds nuw i8, ptr %3, i64 584
  tail call void @av_refstruct_unref(ptr noundef nonnull %5) #16
  %6 = getelementptr inbounds nuw i8, ptr %3, i64 7008
  %7 = getelementptr inbounds nuw i8, ptr %3, i64 7144
  br label %9

.preheader:                                       ; preds = %9
  %8 = getelementptr inbounds nuw i8, ptr %3, i64 7304
  br label %23

9:                                                ; preds = %1, %9
  %indvars.iv = phi i64 [ 0, %1 ], [ %indvars.iv.next, %9 ]
  %10 = getelementptr inbounds nuw [17 x ptr], ptr %6, i64 0, i64 %indvars.iv
  tail call void @av_refstruct_unref(ptr noundef nonnull %10) #16
  %11 = getelementptr inbounds nuw [17 x ptr], ptr %7, i64 0, i64 %indvars.iv
  tail call void @av_refstruct_unref(ptr noundef nonnull %11) #16
  %indvars.iv.next = add nuw nsw i64 %indvars.iv, 1
  %exitcond.not = icmp eq i64 %indvars.iv.next, 17
  br i1 %exitcond.not, label %.preheader, label %9, !llvm.loop !272

12:                                               ; preds = %23
  %13 = getelementptr inbounds nuw i8, ptr %3, i64 4888
  tail call void @av_frame_free(ptr noundef nonnull %13) #16
  %14 = getelementptr inbounds nuw i8, ptr %0, i64 496
  tail call void @av_freep(ptr noundef nonnull %14) #16
  %15 = getelementptr inbounds nuw i8, ptr %3, i64 8112
  tail call void @av_freep(ptr noundef nonnull %15) #16
  %16 = getelementptr inbounds nuw i8, ptr %3, i64 6424
  tail call void @av_freep(ptr noundef nonnull %16) #16
  %17 = getelementptr inbounds nuw i8, ptr %3, i64 8104
  tail call void @av_freep(ptr noundef nonnull %17) #16
  %18 = getelementptr inbounds nuw i8, ptr %3, i64 6472
  tail call void @av_freep(ptr noundef nonnull %18) #16
  %19 = getelementptr inbounds nuw i8, ptr %3, i64 4848
  tail call void @av_freep(ptr noundef nonnull %19) #16
  %20 = getelementptr inbounds nuw i8, ptr %3, i64 6656
  tail call void @av_freep(ptr noundef nonnull %20) #16
  %21 = getelementptr inbounds nuw i8, ptr %3, i64 6680
  tail call void @av_freep(ptr noundef nonnull %21) #16
  %22 = getelementptr inbounds nuw i8, ptr %3, i64 6728
  tail call void @av_freep(ptr noundef nonnull %22) #16
  ret i32 0

23:                                               ; preds = %.preheader, %23
  %indvars.iv29 = phi i64 [ 0, %.preheader ], [ %indvars.iv.next30, %23 ]
  %24 = getelementptr inbounds nuw [18 x ptr], ptr %8, i64 0, i64 %indvars.iv29
  tail call void @av_frame_free(ptr noundef nonnull %24) #16
  %indvars.iv.next30 = add nuw nsw i64 %indvars.iv29, 1
  %exitcond32.not = icmp eq i64 %indvars.iv.next30, 18
  br i1 %exitcond32.not, label %12, label %23, !llvm.loop !273
}